target datalayout = "e-m:e-p270:32:32-p271:32:32-p272:64:64-i64:64-i128:128-f80:128-n8:16:32:64-S128"
target triple = "x86_64-pc-linux-gnu"

%struct.normal_encoding = type { %struct.encoding, [256 x i8], ptr, ptr, ptr, ptr, ptr, ptr, ptr, ptr, ptr }
%struct.encoding = type { [3 x ptr], [2 x ptr], ptr, ptr, ptr, ptr, ptr, ptr, ptr, ptr, ptr, ptr, i32, i8, i8 }

; Function Attrs: nounwind uwtable
define internal i32 @unicode_byte_type(i8 noundef signext %0, i8 noundef signext %1) #0 {
  %3 = alloca i32, align 4
  %4 = alloca i8, align 1
  %5 = alloca i8, align 1
  store i8 %0, ptr %4, align 1, !tbaa !13
  store i8 %1, ptr %5, align 1, !tbaa !13
  %6 = load i8, ptr %4, align 1, !tbaa !13
  %7 = zext i8 %6 to i32
  switch i32 %7, label %15 [
    i32 216, label %8
    i32 217, label %8
    i32 218, label %8
    i32 219, label %8
    i32 220, label %9
    i32 221, label %9
    i32 222, label %9
    i32 223, label %9
    i32 255, label %10
  ]

8:                                                ; preds = %2, %2, %2, %2
  store i32 7, ptr %3, align 4
  br label %16

9:                                                ; preds = %2, %2, %2, %2
  store i32 8, ptr %3, align 4
  br label %16

10:                                               ; preds = %2
  %11 = load i8, ptr %5, align 1, !tbaa !13
  %12 = zext i8 %11 to i32
  switch i32 %12, label %14 [
    i32 255, label %13
    i32 254, label %13
  ]

13:                                               ; preds = %10, %10
  store i32 0, ptr %3, align 4
  br label %16

14:                                               ; preds = %10
  br label %15

15:                                               ; preds = %2, %14
  store i32 29, ptr %3, align 4
  br label %16

16:                                               ; preds = %15, %13, %9, %8
  %17 = load i32, ptr %3, align 4
  ret i32 %17
}

; Function Attrs: nounwind uwtable
define internal i32 @big2_scanComment(ptr noundef %0, ptr noundef %1, ptr noundef %2, ptr noundef %3) #0 {
  %5 = alloca i32, align 4
  %6 = alloca ptr, align 8
  %7 = alloca ptr, align 8
  %8 = alloca ptr, align 8
  %9 = alloca ptr, align 8
  store ptr %0, ptr %6, align 8, !tbaa !45
  store ptr %1, ptr %7, align 8, !tbaa !4
  store ptr %2, ptr %8, align 8, !tbaa !4
  store ptr %3, ptr %9, align 8, !tbaa !9
  %10 = load ptr, ptr %8, align 8, !tbaa !4
  %11 = load ptr, ptr %7, align 8, !tbaa !4
  %12 = ptrtoint ptr %10 to i64
  %13 = ptrtoint ptr %11 to i64
  %14 = sub i64 %12, %13
  %15 = icmp sge i64 %14, 2
  br i1 %15, label %16, label %160

16:                                               ; preds = %4
  %17 = load ptr, ptr %7, align 8, !tbaa !4
  %18 = getelementptr inbounds i8, ptr %17, i64 0
  %19 = load i8, ptr %18, align 1, !tbaa !13
  %20 = sext i8 %19 to i32
  %21 = icmp eq i32 %20, 0
  br i1 %21, label %22, label %28

22:                                               ; preds = %16
  %23 = load ptr, ptr %7, align 8, !tbaa !4
  %24 = getelementptr inbounds i8, ptr %23, i64 1
  %25 = load i8, ptr %24, align 1, !tbaa !13
  %26 = sext i8 %25 to i32
  %27 = icmp eq i32 %26, 45
  br i1 %27, label %31, label %28

28:                                               ; preds = %22, %16
  %29 = load ptr, ptr %7, align 8, !tbaa !4
  %30 = load ptr, ptr %9, align 8, !tbaa !9
  store ptr %29, ptr %30, align 8, !tbaa !4
  store i32 0, ptr %5, align 4
  br label %161

31:                                               ; preds = %22
  %32 = load ptr, ptr %7, align 8, !tbaa !4
  %33 = getelementptr inbounds i8, ptr %32, i64 2
  store ptr %33, ptr %7, align 8, !tbaa !4
  br label %34

34:                                               ; preds = %158, %31
  %35 = load ptr, ptr %8, align 8, !tbaa !4
  %36 = load ptr, ptr %7, align 8, !tbaa !4
  %37 = ptrtoint ptr %35 to i64
  %38 = ptrtoint ptr %36 to i64
  %39 = sub i64 %37, %38
  %40 = icmp sge i64 %39, 2
  br i1 %40, label %41, label %159

41:                                               ; preds = %34
  %42 = load ptr, ptr %7, align 8, !tbaa !4
  %43 = getelementptr inbounds i8, ptr %42, i64 0
  %44 = load i8, ptr %43, align 1, !tbaa !13
  %45 = sext i8 %44 to i32
  %46 = icmp eq i32 %45, 0
  br i1 %46, label %47, label %57

47:                                               ; preds = %41
  %48 = load ptr, ptr %6, align 8, !tbaa !45
  %49 = getelementptr inbounds nuw %struct.normal_encoding, ptr %48, i32 0, i32 1
  %50 = load ptr, ptr %7, align 8, !tbaa !4
  %51 = getelementptr inbounds i8, ptr %50, i64 1
  %52 = load i8, ptr %51, align 1, !tbaa !13
  %53 = zext i8 %52 to i64
  %54 = getelementptr inbounds nuw [256 x i8], ptr %49, i64 0, i64 %53
  %55 = load i8, ptr %54, align 1, !tbaa !13
  %56 = zext i8 %55 to i32
  br label %65

57:                                               ; preds = %41
  %58 = load ptr, ptr %7, align 8, !tbaa !4
  %59 = getelementptr inbounds i8, ptr %58, i64 0
  %60 = load i8, ptr %59, align 1, !tbaa !13
  %61 = load ptr, ptr %7, align 8, !tbaa !4
  %62 = getelementptr inbounds i8, ptr %61, i64 1
  %63 = load i8, ptr %62, align 1, !tbaa !13
  %64 = call i32 @unicode_byte_type(i8 noundef signext %60, i8 noundef signext %63)
  br label %65

65:                                               ; preds = %57, %47
  %66 = phi i32 [ %56, %47 ], [ %64, %57 ]
  switch i32 %66, label %155 [
    i32 5, label %67
    i32 6, label %78
    i32 7, label %89
    i32 0, label %100
    i32 1, label %100
    i32 8, label %100
    i32 27, label %103
  ]

67:                                               ; preds = %65
  %68 = load ptr, ptr %8, align 8, !tbaa !4
  %69 = load ptr, ptr %7, align 8, !tbaa !4
  %70 = ptrtoint ptr %68 to i64
  %71 = ptrtoint ptr %69 to i64
  %72 = sub i64 %70, %71
  %73 = icmp slt i64 %72, 2
  br i1 %73, label %74, label %75

74:                                               ; preds = %67
  store i32 -2, ptr %5, align 4
  br label %161

75:                                               ; preds = %67
  %76 = load ptr, ptr %7, align 8, !tbaa !4
  %77 = getelementptr inbounds i8, ptr %76, i64 2
  store ptr %77, ptr %7, align 8, !tbaa !4
  br label %158

78:                                               ; preds = %65
  %79 = load ptr, ptr %8, align 8, !tbaa !4
  %80 = load ptr, ptr %7, align 8, !tbaa !4
  %81 = ptrtoint ptr %79 to i64
  %82 = ptrtoint ptr %80 to i64
  %83 = sub i64 %81, %82
  %84 = icmp slt i64 %83, 3
  br i1 %84, label %85, label %86

85:                                               ; preds = %78
  store i32 -2, ptr %5, align 4
  br label %161

86:                                               ; preds = %78
  %87 = load ptr, ptr %7, align 8, !tbaa !4
  %88 = getelementptr inbounds i8, ptr %87, i64 3
  store ptr %88, ptr %7, align 8, !tbaa !4
  br label %158

89:                                               ; preds = %65
  %90 = load ptr, ptr %8, align 8, !tbaa !4
  %91 = load ptr, ptr %7, align 8, !tbaa !4
  %92 = ptrtoint ptr %90 to i64
  %93 = ptrtoint ptr %91 to i64
  %94 = sub i64 %92, %93
  %95 = icmp slt i64 %94, 4
  br i1 %95, label %96, label %97

96:                                               ; preds = %89
  store i32 -2, ptr %5, align 4
  br label %161

97:                                               ; preds = %89
  %98 = load ptr, ptr %7, align 8, !tbaa !4
  %99 = getelementptr inbounds i8, ptr %98, i64 4
  store ptr %99, ptr %7, align 8, !tbaa !4
  br label %158

100:                                              ; preds = %65, %65, %65
  %101 = load ptr, ptr %7, align 8, !tbaa !4
  %102 = load ptr, ptr %9, align 8, !tbaa !9
  store ptr %101, ptr %102, align 8, !tbaa !4
  store i32 0, ptr %5, align 4
  br label %161

103:                                              ; preds = %65
  %104 = load ptr, ptr %7, align 8, !tbaa !4
  %105 = getelementptr inbounds i8, ptr %104, i64 2
  store ptr %105, ptr %7, align 8, !tbaa !4
  %106 = load ptr, ptr %8, align 8, !tbaa !4
  %107 = load ptr, ptr %7, align 8, !tbaa !4
  %108 = ptrtoint ptr %106 to i64
  %109 = ptrtoint ptr %107 to i64
  %110 = sub i64 %108, %109
  %111 = icmp sge i64 %110, 2
  br i1 %111, label %113, label %112

112:                                              ; preds = %103
  store i32 -1, ptr %5, align 4
  br label %161

113:                                              ; preds = %103
  %114 = load ptr, ptr %7, align 8, !tbaa !4
  %115 = getelementptr inbounds i8, ptr %114, i64 0
  %116 = load i8, ptr %115, align 1, !tbaa !13
  %117 = sext i8 %116 to i32
  %118 = icmp eq i32 %117, 0
  br i1 %118, label %119, label %154

119:                                              ; preds = %113
  %120 = load ptr, ptr %7, align 8, !tbaa !4
  %121 = getelementptr inbounds i8, ptr %120, i64 1
  %122 = load i8, ptr %121, align 1, !tbaa !13
  %123 = sext i8 %122 to i32
  %124 = icmp eq i32 %123, 45
  br i1 %124, label %125, label %154

125:                                              ; preds = %119
  %126 = load ptr, ptr %7, align 8, !tbaa !4
  %127 = getelementptr inbounds i8, ptr %126, i64 2
  store ptr %127, ptr %7, align 8, !tbaa !4
  %128 = load ptr, ptr %8, align 8, !tbaa !4
  %129 = load ptr, ptr %7, align 8, !tbaa !4
  %130 = ptrtoint ptr %128 to i64
  %131 = ptrtoint ptr %129 to i64
  %132 = sub i64 %130, %131
  %133 = icmp sge i64 %132, 2
  br i1 %133, label %135, label %134

134:                                              ; preds = %125
  store i32 -1, ptr %5, align 4
  br label %161

135:                                              ; preds = %125
  %136 = load ptr, ptr %7, align 8, !tbaa !4
  %137 = getelementptr inbounds i8, ptr %136, i64 0
  %138 = load i8, ptr %137, align 1, !tbaa !13
  %139 = sext i8 %138 to i32
  %140 = icmp eq i32 %139, 0
  br i1 %140, label %141, label %147

141:                                              ; preds = %135
  %142 = load ptr, ptr %7, align 8, !tbaa !4
  %143 = getelementptr inbounds i8, ptr %142, i64 1
  %144 = load i8, ptr %143, align 1, !tbaa !13
  %145 = sext i8 %144 to i32
  %146 = icmp eq i32 %145, 62
  br i1 %146, label %150, label %147

147:                                              ; preds = %141, %135
  %148 = load ptr, ptr %7, align 8, !tbaa !4
  %149 = load ptr, ptr %9, align 8, !tbaa !9
  store ptr %148, ptr %149, align 8, !tbaa !4
  store i32 0, ptr %5, align 4
  br label %161

150:                                              ; preds = %141
  %151 = load ptr, ptr %7, align 8, !tbaa !4
  %152 = getelementptr inbounds i8, ptr %151, i64 2
  %153 = load ptr, ptr %9, align 8, !tbaa !9
  store ptr %152, ptr %153, align 8, !tbaa !4
  store i32 13, ptr %5, align 4
  br label %161

154:                                              ; preds = %119, %113
  br label %158

155:                                              ; preds = %65
  %156 = load ptr, ptr %7, align 8, !tbaa !4
  %157 = getelementptr inbounds i8, ptr %156, i64 2
  store ptr %157, ptr %7, align 8, !tbaa !4
  br label %158

158:                                              ; preds = %155, %154, %97, %86, %75
  br label %34, !llvm.loop !159

159:                                              ; preds = %34
  br label %160

160:                                              ; preds = %159, %4
  store i32 -1, ptr %5, align 4
  br label %161

161:                                              ; preds = %160, %150, %147, %134, %112, %100, %96, %85, %74, %28
  %162 = load i32, ptr %5, align 4
  ret i32 %162
}