; Function Attrs: nofree norecurse nosync nounwind memory(argmem: readwrite) uwtable
define internal fastcc range(i32 -2, 14) i32 @big2_scanComment(ptr noundef readonly captures(none) %0, ptr noundef %1, ptr noundef %2, ptr noundef writeonly captures(none) %3) unnamed_addr #4 {
  %5 = ptrtoint ptr %2 to i64
  %6 = ptrtoint ptr %1 to i64
  %7 = sub i64 %5, %6
  %8 = icmp sgt i64 %7, 1
  br i1 %8, label %9, label %.loopexit

9:                                                ; preds = %4
  %10 = load i8, ptr %1, align 1, !tbaa !9
  %11 = icmp eq i8 %10, 0
  br i1 %11, label %12, label %.loopexit.sink.split

12:                                               ; preds = %9
  %13 = getelementptr inbounds nuw i8, ptr %1, i64 1
  %14 = load i8, ptr %13, align 1, !tbaa !9
  %15 = icmp eq i8 %14, 45
  br i1 %15, label %16, label %.loopexit.sink.split

16:                                               ; preds = %12
  %17 = getelementptr inbounds nuw i8, ptr %1, i64 2
  %18 = ptrtoint ptr %17 to i64
  %19 = sub i64 %5, %18
  %20 = icmp sgt i64 %19, 1
  br i1 %20, label %.lr.ph, label %.loopexit

.lr.ph:                                           ; preds = %16
  %21 = getelementptr inbounds nuw i8, ptr %0, i64 128
  br label %22

22:                                               ; preds = %.lr.ph, %68
  %23 = phi i64 [ %19, %.lr.ph ], [ %70, %68 ]
  %.04044 = phi ptr [ %17, %.lr.ph ], [ %.1, %68 ]
  %24 = load i8, ptr %.04044, align 1, !tbaa !9
  switch i8 %24, label %unicode_byte_type.exit.thread54 [
    i8 0, label %unicode_byte_type.exit
    i8 -40, label %unicode_byte_type.exit.thread57
    i8 -39, label %unicode_byte_type.exit.thread57
    i8 -38, label %unicode_byte_type.exit.thread57
    i8 -37, label %unicode_byte_type.exit.thread57
    i8 -36, label %.loopexit.sink.split
    i8 -35, label %.loopexit.sink.split
    i8 -34, label %.loopexit.sink.split
    i8 -33, label %.loopexit.sink.split
    i8 -1, label %25
  ]

25:                                               ; preds = %22
  %26 = getelementptr inbounds nuw i8, ptr %.04044, i64 1
  %27 = load i8, ptr %26, align 1, !tbaa !9
  %switch.i = icmp ugt i8 %27, -3
  br i1 %switch.i, label %.loopexit.sink.split, label %unicode_byte_type.exit.thread54

unicode_byte_type.exit:                           ; preds = %22
  %28 = getelementptr inbounds nuw i8, ptr %.04044, i64 1
  %29 = load i8, ptr %28, align 1, !tbaa !9
  %30 = zext i8 %29 to i64
  %31 = getelementptr inbounds nuw [256 x i8], ptr %21, i64 0, i64 %30
  %32 = load i8, ptr %31, align 1, !tbaa !9
  switch i8 %32, label %unicode_byte_type.exit.thread54 [
    i8 5, label %33
    i8 6, label %35
    i8 7, label %unicode_byte_type.exit.thread57
    i8 0, label %.loopexit.sink.split
    i8 1, label %.loopexit.sink.split
    i8 8, label %.loopexit.sink.split
    i8 27, label %42
  ]

33:                                               ; preds = %unicode_byte_type.exit
  %34 = getelementptr inbounds nuw i8, ptr %.04044, i64 2
  br label %68

35:                                               ; preds = %unicode_byte_type.exit
  %36 = icmp eq i64 %23, 2
  br i1 %36, label %.loopexit, label %37

37:                                               ; preds = %35
  %38 = getelementptr inbounds nuw i8, ptr %.04044, i64 3
  br label %68

unicode_byte_type.exit.thread57:                  ; preds = %22, %22, %22, %22, %unicode_byte_type.exit
  %39 = icmp samesign ult i64 %23, 4
  br i1 %39, label %.loopexit, label %40

40:                                               ; preds = %unicode_byte_type.exit.thread57
  %41 = getelementptr inbounds nuw i8, ptr %.04044, i64 4
  br label %68

42:                                               ; preds = %unicode_byte_type.exit
  %43 = getelementptr inbounds nuw i8, ptr %.04044, i64 2
  %44 = ptrtoint ptr %43 to i64
  %45 = sub i64 %5, %44
  %46 = icmp sgt i64 %45, 1
  br i1 %46, label %47, label %.loopexit

47:                                               ; preds = %42
  %48 = load i8, ptr %43, align 1, !tbaa !9
  %49 = icmp eq i8 %48, 0
  br i1 %49, label %50, label %68

50:                                               ; preds = %47
  %51 = getelementptr inbounds nuw i8, ptr %.04044, i64 3
  %52 = load i8, ptr %51, align 1, !tbaa !9
  %53 = icmp eq i8 %52, 45
  br i1 %53, label %54, label %68

54:                                               ; preds = %50
  %55 = getelementptr inbounds nuw i8, ptr %.04044, i64 4
  %56 = ptrtoint ptr %55 to i64
  %57 = sub i64 %5, %56
  %58 = icmp sgt i64 %57, 1
  br i1 %58, label %59, label %.loopexit

59:                                               ; preds = %54
  %60 = load i8, ptr %55, align 1, !tbaa !9
  %61 = icmp eq i8 %60, 0
  br i1 %61, label %62, label %.loopexit.sink.split

62:                                               ; preds = %59
  %63 = getelementptr inbounds nuw i8, ptr %.04044, i64 5
  %64 = load i8, ptr %63, align 1, !tbaa !9
  %65 = icmp eq i8 %64, 62
  %66 = getelementptr inbounds nuw i8, ptr %.04044, i64 6
  %spec.select = select i1 %65, ptr %66, ptr %55
  %spec.select61 = select i1 %65, i32 13, i32 0
  br label %.loopexit.sink.split

unicode_byte_type.exit.thread54:                  ; preds = %22, %25, %unicode_byte_type.exit
  %67 = getelementptr inbounds nuw i8, ptr %.04044, i64 2
  br label %68

68:                                               ; preds = %47, %50, %unicode_byte_type.exit.thread54, %40, %37, %33
  %.1 = phi ptr [ %67, %unicode_byte_type.exit.thread54 ], [ %43, %50 ], [ %43, %47 ], [ %41, %40 ], [ %38, %37 ], [ %34, %33 ]
  %69 = ptrtoint ptr %.1 to i64
  %70 = sub i64 %5, %69
  %71 = icmp sgt i64 %70, 1
  br i1 %71, label %22, label %.loopexit, !llvm.loop !145

.loopexit.sink.split:                             ; preds = %unicode_byte_type.exit, %unicode_byte_type.exit, %unicode_byte_type.exit, %25, %22, %22, %22, %22, %62, %59, %9, %12
  %.sink = phi ptr [ %1, %12 ], [ %1, %9 ], [ %55, %59 ], [ %spec.select, %62 ], [ %.04044, %22 ], [ %.04044, %22 ], [ %.04044, %22 ], [ %.04044, %22 ], [ %.04044, %25 ], [ %.04044, %unicode_byte_type.exit ], [ %.04044, %unicode_byte_type.exit ], [ %.04044, %unicode_byte_type.exit ]
  %.0.ph = phi i32 [ 0, %12 ], [ 0, %9 ], [ 0, %59 ], [ %spec.select61, %62 ], [ 0, %22 ], [ 0, %22 ], [ 0, %22 ], [ 0, %22 ], [ 0, %25 ], [ 0, %unicode_byte_type.exit ], [ 0, %unicode_byte_type.exit ], [ 0, %unicode_byte_type.exit ]
  store ptr %.sink, ptr %3, align 8, !tbaa !4
  br label %.loopexit

.loopexit:                                        ; preds = %35, %unicode_byte_type.exit.thread57, %42, %68, %.loopexit.sink.split, %16, %4, %54
  %.0 = phi i32 [ -1, %54 ], [ -1, %4 ], [ -1, %16 ], [ %.0.ph, %.loopexit.sink.split ], [ -2, %35 ], [ -2, %unicode_byte_type.exit.thread57 ], [ -1, %42 ], [ -1, %68 ]
  ret i32 %.0
}